target datalayout = "e-m:e-p270:32:32-p271:32:32-p272:64:64-i64:64-i128:128-f80:128-n8:16:32:64-S128"
target triple = "x86_64-pc-linux-gnu"

; Function Attrs: nounwind uwtable
define void @scadd(ptr noundef %0, i32 noundef %1, double noundef %2, ptr noundef %3) #0 {
  %5 = alloca ptr, align 8
  %6 = alloca i32, align 4
  %7 = alloca double, align 8
  %8 = alloca ptr, align 8
  %9 = alloca i32, align 4
  store ptr %0, ptr %5, align 8, !tbaa !10
  store i32 %1, ptr %6, align 4, !tbaa !8
  store double %2, ptr %7, align 8, !tbaa !12
  store ptr %3, ptr %8, align 8, !tbaa !10
  call void @llvm.lifetime.start.p0(i64 4, ptr %9) #8
  %10 = load i32, ptr %6, align 4, !tbaa !8
  %11 = add nsw i32 %10, 1
  store i32 %11, ptr %9, align 4, !tbaa !8
  br label %12

12:                                               ; preds = %24, %4
  %13 = load i32, ptr %9, align 4, !tbaa !8
  %14 = icmp ne i32 %13, 0
  br i1 %14, label %15, label %27

15:                                               ; preds = %12
  %16 = load double, ptr %7, align 8, !tbaa !12
  %17 = load ptr, ptr %8, align 8, !tbaa !10
  %18 = getelementptr inbounds nuw double, ptr %17, i32 1
  store ptr %18, ptr %8, align 8, !tbaa !10
  %19 = load double, ptr %17, align 8, !tbaa !12
  %20 = load ptr, ptr %5, align 8, !tbaa !10
  %21 = getelementptr inbounds nuw double, ptr %20, i32 1
  store ptr %21, ptr %5, align 8, !tbaa !10
  %22 = load double, ptr %20, align 8, !tbaa !12
  %23 = call double @llvm.fmuladd.f64(double %16, double %19, double %22)
  store double %23, ptr %20, align 8, !tbaa !12
  br label %24

24:                                               ; preds = %15
  %25 = load i32, ptr %9, align 4, !tbaa !8
  %26 = add nsw i32 %25, -1
  store i32 %26, ptr %9, align 4, !tbaa !8
  br label %12, !llvm.loop !31

27:                                               ; preds = %12
  call void @llvm.lifetime.end.p0(i64 4, ptr %9) #8
  ret void
}