; Function Attrs: nofree norecurse nosync nounwind memory(argmem: readwrite) uwtable
define void @scadd(ptr noundef captures(none) %0, i32 noundef %1, double noundef %2, ptr noundef readonly captures(none) %3) local_unnamed_addr #3 {
  %5 = add nsw i32 %1, 1
  %.not7 = icmp eq i32 %5, 0
  br i1 %.not7, label %._crit_edge, label %.lr.ph

.lr.ph:                                           ; preds = %4, %.lr.ph
  %.010 = phi i32 [ %11, %.lr.ph ], [ %5, %4 ]
  %.059 = phi ptr [ %6, %.lr.ph ], [ %3, %4 ]
  %.068 = phi ptr [ %8, %.lr.ph ], [ %0, %4 ]
  %6 = getelementptr inbounds nuw i8, ptr %.059, i64 8
  %7 = load double, ptr %.059, align 8, !tbaa !10
  %8 = getelementptr inbounds nuw i8, ptr %.068, i64 8
  %9 = load double, ptr %.068, align 8, !tbaa !10
  %10 = tail call double @llvm.fmuladd.f64(double %2, double %7, double %9)
  store double %10, ptr %.068, align 8, !tbaa !10
  %11 = add nsw i32 %.010, -1
  %.not = icmp eq i32 %11, 0
  br i1 %.not, label %._crit_edge, label %.lr.ph, !llvm.loop !15

._crit_edge:                                      ; preds = %.lr.ph, %4
  ret void
}